(lp0
ccollections
defaultdict
p1
(c__builtin__
list
p2
tp3
Rp4
a(dp5
S'../prefilter_allEM_chef9/kmeans_500_1/all_models.499/344.rmf3|0'
p6
I1715
sS'../prefilter_allEM_chef9/kmeans_500_1/all_models.499/323.rmf3|0'
p7
I1695
sS'../prefilter_allEM_chef9/kmeans_500_1/all_models.499/83.rmf3|0'
p8
I1466
sS'../prefilter_allEM_chef9/kmeans_500_1/all_models.499/216.rmf3|0'
p9
I1590
sS'../prefilter_allEM_chef9/kmeans_500_1/all_models.499/250.rmf3|0'
p10
I1624
sS'../prefilter_allEM_chef9/kmeans_500_1/all_models.499/305.rmf3|0'
p11
I1678
sS'../prefilter_allEM_chef9/kmeans_500_1/all_models.499/494.rmf3|0'
p12
I1847
sS'../prefilter_allEM_chef9/kmeans_500_1/all_models.499/33.rmf3|0'
p13
I1418
sS'../prefilter_allEM_chef9/kmeans_500_1/all_models.499/432.rmf3|0'
p14
I1793
sS'../prefilter_allEM_chef9/kmeans_500_1/all_models.499/352.rmf3|0'
p15
I1722
sS'../prefilter_allEM_chef9/kmeans_500_1/all_models.499/219.rmf3|0'
p16
I1593
sS'../prefilter_allEM_chef9/kmeans_500_1/all_models.499/172.rmf3|0'
p17
I1550
sS'../prefilter_allEM_chef9/kmeans_500_1/all_models.499/215.rmf3|0'
p18
I1589
sS'../prefilter_allEM_chef9/kmeans_500_1/all_models.499/330.rmf3|0'
p19
I1701
sS'../prefilter_allEM_chef9/kmeans_500_1/all_models.499/11.rmf3|0'
p20
I1398
sS'../prefilter_allEM_chef9/kmeans_500_1/all_models.499/98.rmf3|0'
p21
I1480
sS'../prefilter_allEM_chef9/kmeans_500_1/all_models.499/108.rmf3|0'
p22
I1490
sS'../prefilter_allEM_chef9/kmeans_500_1/all_models.499/202.rmf3|0'
p23
I1577
sS'../prefilter_allEM_chef9/kmeans_500_1/all_models.499/355.rmf3|0'
p24
I1725
sS'../prefilter_allEM_chef9/kmeans_500_1/all_models.499/485.rmf3|0'
p25
I1841
sS'../prefilter_allEM_chef9/kmeans_500_1/all_models.499/221.rmf3|0'
p26
I1595
sS'../prefilter_allEM_chef9/kmeans_500_1/all_models.499/233.rmf3|0'
p27
I1607
sS'../prefilter_allEM_chef9/kmeans_500_1/all_models.499/312.rmf3|0'
p28
I1685
sS'../prefilter_allEM_chef9/kmeans_500_1/all_models.499/464.rmf3|0'
p29
I1823
sS'../prefilter_allEM_chef9/kmeans_500_1/all_models.499/454.rmf3|0'
p30
I1814
sS'../prefilter_allEM_chef9/kmeans_500_1/all_models.499/450.rmf3|0'
p31
I1810
sS'../prefilter_allEM_chef9/kmeans_500_1/all_models.499/109.rmf3|0'
p32
I1491
sS'../prefilter_allEM_chef9/kmeans_500_1/all_models.499/191.rmf3|0'
p33
I1567
sS'../prefilter_allEM_chef9/kmeans_500_1/all_models.499/247.rmf3|0'
p34
I1621
sS'../prefilter_allEM_chef9/kmeans_500_1/all_models.499/270.rmf3|0'
p35
I1644
sS'../prefilter_allEM_chef9/kmeans_500_1/all_models.499/256.rmf3|0'
p36
I1630
sS'../prefilter_allEM_chef9/kmeans_500_1/all_models.499/157.rmf3|0'
p37
I1536
sS'../prefilter_allEM_chef9/kmeans_500_1/all_models.499/146.rmf3|0'
p38
I1525
sS'../prefilter_allEM_chef9/kmeans_500_1/all_models.499/341.rmf3|0'
p39
I1712
sS'../prefilter_allEM_chef9/kmeans_500_1/all_models.499/159.rmf3|0'
p40
I1538
sS'../prefilter_allEM_chef9/kmeans_500_1/all_models.499/54.rmf3|0'
p41
I1437
sS'../prefilter_allEM_chef9/kmeans_500_1/all_models.499/303.rmf3|0'
p42
I1677
sS'../prefilter_allEM_chef9/kmeans_500_1/all_models.499/480.rmf3|0'
p43
I1836
sS'../prefilter_allEM_chef9/kmeans_500_1/all_models.499/273.rmf3|0'
p44
I1647
sS'../prefilter_allEM_chef9/kmeans_500_1/all_models.499/248.rmf3|0'
p45
I1622
sS'../prefilter_allEM_chef9/kmeans_500_1/all_models.499/347.rmf3|0'
p46
I1717
sS'../prefilter_allEM_chef9/kmeans_500_1/all_models.499/392.rmf3|0'
p47
I1756
sS'../prefilter_allEM_chef9/kmeans_500_1/all_models.499/377.rmf3|0'
p48
I1743
sS'../prefilter_allEM_chef9/kmeans_500_1/all_models.499/129.rmf3|0'
p49
I1508
sS'../prefilter_allEM_chef9/kmeans_500_1/all_models.499/100.rmf3|0'
p50
I1482
sS'../prefilter_allEM_chef9/kmeans_500_1/all_models.499/161.rmf3|0'
p51
I1540
sS'../prefilter_allEM_chef9/kmeans_500_1/all_models.499/380.rmf3|0'
p52
I1746
sS'../prefilter_allEM_chef9/kmeans_500_1/all_models.499/131.rmf3|0'
p53
I1510
sS'../prefilter_allEM_chef9/kmeans_500_1/all_models.499/125.rmf3|0'
p54
I1504
sS'../prefilter_allEM_chef9/kmeans_500_1/all_models.499/130.rmf3|0'
p55
I1509
sS'../prefilter_allEM_chef9/kmeans_500_1/all_models.499/264.rmf3|0'
p56
I1638
sS'../prefilter_allEM_chef9/kmeans_500_1/all_models.499/391.rmf3|0'
p57
I1755
sS'../prefilter_allEM_chef9/kmeans_500_1/all_models.499/374.rmf3|0'
p58
I1740
sS'../prefilter_allEM_chef9/kmeans_500_1/all_models.499/452.rmf3|0'
p59
I1812
sS'../prefilter_allEM_chef9/kmeans_500_1/all_models.499/90.rmf3|0'
p60
I1472
sS'../prefilter_allEM_chef9/kmeans_500_1/all_models.499/470.rmf3|0'
p61
I1827
sS'../prefilter_allEM_chef9/kmeans_500_1/all_models.499/314.rmf3|0'
p62
I1687
sS'../prefilter_allEM_chef9/kmeans_500_1/all_models.499/342.rmf3|0'
p63
I1713
sS'../prefilter_allEM_chef9/kmeans_500_1/all_models.499/475.rmf3|0'
p64
I1831
sS'../prefilter_allEM_chef9/kmeans_500_1/all_models.499/194.rmf3|0'
p65
I1570
sS'../prefilter_allEM_chef9/kmeans_500_1/all_models.499/163.rmf3|0'
p66
I1542
sS'../prefilter_allEM_chef9/kmeans_500_1/all_models.499/382.rmf3|0'
p67
I1748
sS'../prefilter_allEM_chef9/kmeans_500_1/all_models.499/148.rmf3|0'
p68
I1527
sS'../prefilter_allEM_chef9/kmeans_500_1/all_models.499/105.rmf3|0'
p69
I1487
sS'../prefilter_allEM_chef9/kmeans_500_1/all_models.499/192.rmf3|0'
p70
I1568
sS'../prefilter_allEM_chef9/kmeans_500_1/all_models.499/353.rmf3|0'
p71
I1723
sS'../prefilter_allEM_chef9/kmeans_500_1/all_models.499/249.rmf3|0'
p72
I1623
sS'../prefilter_allEM_chef9/kmeans_500_1/all_models.499/394.rmf3|0'
p73
I1758
sS'../prefilter_allEM_chef9/kmeans_500_1/all_models.499/315.rmf3|0'
p74
I1688
sS'../prefilter_allEM_chef9/kmeans_500_1/all_models.499/56.rmf3|0'
p75
I1439
sS'../prefilter_allEM_chef9/kmeans_500_1/all_models.499/89.rmf3|0'
p76
I1471
sS'../prefilter_allEM_chef9/kmeans_500_1/all_models.499/420.rmf3|0'
p77
I1783
sS'../prefilter_allEM_chef9/kmeans_500_1/all_models.499/57.rmf3|0'
p78
I1440
sS'../prefilter_allEM_chef9/kmeans_500_1/all_models.499/82.rmf3|0'
p79
I1465
sS'../prefilter_allEM_chef9/kmeans_500_1/all_models.499/6.rmf3|0'
p80
I1395
sS'../prefilter_allEM_chef9/kmeans_500_1/all_models.499/292.rmf3|0'
p81
I1666
sS'../prefilter_allEM_chef9/kmeans_500_1/all_models.499/76.rmf3|0'
p82
I1459
sS'../prefilter_allEM_chef9/kmeans_500_1/all_models.499/457.rmf3|0'
p83
I1817
sS'../prefilter_allEM_chef9/kmeans_500_1/all_models.499/32.rmf3|0'
p84
I1417
sS'../prefilter_allEM_chef9/kmeans_500_1/all_models.499/36.rmf3|0'
p85
I1420
sS'../prefilter_allEM_chef9/kmeans_500_1/all_models.499/390.rmf3|0'
p86
I1754
sS'../prefilter_allEM_chef9/kmeans_500_1/all_models.499/277.rmf3|0'
p87
I1651
sS'../prefilter_allEM_chef9/kmeans_500_1/all_models.499/110.rmf3|0'
p88
I1492
sS'../prefilter_allEM_chef9/kmeans_500_1/all_models.499/123.rmf3|0'
p89
I1502
sS'../prefilter_allEM_chef9/kmeans_500_1/all_models.499/197.rmf3|0'
p90
I1573
sS'../prefilter_allEM_chef9/kmeans_500_1/all_models.499/335.rmf3|0'
p91
I1706
sS'../prefilter_allEM_chef9/kmeans_500_1/all_models.499/95.rmf3|0'
p92
I1477
sS'../prefilter_allEM_chef9/kmeans_500_1/all_models.499/209.rmf3|0'
p93
I1584
sS'../prefilter_allEM_chef9/kmeans_500_1/all_models.499/383.rmf3|0'
p94
I1749
sS'../prefilter_allEM_chef9/kmeans_500_1/all_models.499/363.rmf3|0'
p95
I1731
sS'../prefilter_allEM_chef9/kmeans_500_1/all_models.499/150.rmf3|0'
p96
I1529
sS'../prefilter_allEM_chef9/kmeans_500_1/all_models.499/285.rmf3|0'
p97
I1659
sS'../prefilter_allEM_chef9/kmeans_500_1/all_models.499/61.rmf3|0'
p98
I1444
sS'../prefilter_allEM_chef9/kmeans_500_1/all_models.499/406.rmf3|0'
p99
I1770
sS'../prefilter_allEM_chef9/kmeans_500_1/all_models.499/484.rmf3|0'
p100
I1840
sS'../prefilter_allEM_chef9/kmeans_500_1/all_models.499/80.rmf3|0'
p101
I1463
sS'../prefilter_allEM_chef9/kmeans_500_1/all_models.499/198.rmf3|0'
p102
I1574
sS'../prefilter_allEM_chef9/kmeans_500_1/all_models.499/93.rmf3|0'
p103
I1475
sS'../prefilter_allEM_chef9/kmeans_500_1/all_models.499/336.rmf3|0'
p104
I1707
sS'../prefilter_allEM_chef9/kmeans_500_1/all_models.499/316.rmf3|0'
p105
I1689
sS'../prefilter_allEM_chef9/kmeans_500_1/all_models.499/122.rmf3|0'
p106
I1501
sS'../prefilter_allEM_chef9/kmeans_500_1/all_models.499/177.rmf3|0'
p107
I1554
sS'../prefilter_allEM_chef9/kmeans_500_1/all_models.499/224.rmf3|0'
p108
I1598
sS'../prefilter_allEM_chef9/kmeans_500_1/all_models.499/401.rmf3|0'
p109
I1765
sS'../prefilter_allEM_chef9/kmeans_500_1/all_models.499/155.rmf3|0'
p110
I1534
sS'../prefilter_allEM_chef9/kmeans_500_1/all_models.499/242.rmf3|0'
p111
I1616
sS'../prefilter_allEM_chef9/kmeans_500_1/all_models.499/396.rmf3|0'
p112
I1760
sS'../prefilter_allEM_chef9/kmeans_500_1/all_models.499/324.rmf3|0'
p113
I1696
sS'../prefilter_allEM_chef9/kmeans_500_1/all_models.499/255.rmf3|0'
p114
I1629
sS'../prefilter_allEM_chef9/kmeans_500_1/all_models.499/14.rmf3|0'
p115
I1401
sS'../prefilter_allEM_chef9/kmeans_500_1/all_models.499/18.rmf3|0'
p116
I1405
sS'../prefilter_allEM_chef9/kmeans_500_1/all_models.499/465.rmf3|0'
p117
I1824
sS'../prefilter_allEM_chef9/kmeans_500_1/all_models.499/276.rmf3|0'
p118
I1650
sS'../prefilter_allEM_chef9/kmeans_500_1/all_models.499/427.rmf3|0'
p119
I1789
sS'../prefilter_allEM_chef9/kmeans_500_1/all_models.499/269.rmf3|0'
p120
I1643
sS'../prefilter_allEM_chef9/kmeans_500_1/all_models.499/154.rmf3|0'
p121
I1533
sS'../prefilter_allEM_chef9/kmeans_500_1/all_models.499/357.rmf3|0'
p122
I1726
sS'../prefilter_allEM_chef9/kmeans_500_1/all_models.499/446.rmf3|0'
p123
I1807
sS'../prefilter_allEM_chef9/kmeans_500_1/all_models.499/375.rmf3|0'
p124
I1741
sS'../prefilter_allEM_chef9/kmeans_500_1/all_models.499/0.rmf3|0'
p125
I1389
sS'../prefilter_allEM_chef9/kmeans_500_1/all_models.499/79.rmf3|0'
p126
I1462
sS'../prefilter_allEM_chef9/kmeans_500_1/all_models.499/422.rmf3|0'
p127
I1785
sS'../prefilter_allEM_chef9/kmeans_500_1/all_models.499/408.rmf3|0'
p128
I1772
sS'../prefilter_allEM_chef9/kmeans_500_1/all_models.499/176.rmf3|0'
p129
I1553
sS'../prefilter_allEM_chef9/kmeans_500_1/all_models.499/12.rmf3|0'
p130
I1399
sS'../prefilter_allEM_chef9/kmeans_500_1/all_models.499/365.rmf3|0'
p131
I1733
sS'../prefilter_allEM_chef9/kmeans_500_1/all_models.499/318.rmf3|0'
p132
I1691
sS'../prefilter_allEM_chef9/kmeans_500_1/all_models.499/411.rmf3|0'
p133
I1775
sS'../prefilter_allEM_chef9/kmeans_500_1/all_models.499/354.rmf3|0'
p134
I1724
sS'../prefilter_allEM_chef9/kmeans_500_1/all_models.499/183.rmf3|0'
p135
I1559
sS'../prefilter_allEM_chef9/kmeans_500_1/all_models.499/101.rmf3|0'
p136
I1483
sS'../prefilter_allEM_chef9/kmeans_500_1/all_models.499/99.rmf3|0'
p137
I1481
sS'../prefilter_allEM_chef9/kmeans_500_1/all_models.499/445.rmf3|0'
p138
I1806
sS'../prefilter_allEM_chef9/kmeans_500_1/all_models.499/359.rmf3|0'
p139
I1728
sS'../prefilter_allEM_chef9/kmeans_500_1/all_models.499/463.rmf3|0'
p140
I1822
sS'../prefilter_allEM_chef9/kmeans_500_1/all_models.499/1.rmf3|0'
p141
I1390
sS'../prefilter_allEM_chef9/kmeans_500_1/all_models.499/462.rmf3|0'
p142
I1821
sS'../prefilter_allEM_chef9/kmeans_500_1/all_models.499/184.rmf3|0'
p143
I1560
sS'../prefilter_allEM_chef9/kmeans_500_1/all_models.499/288.rmf3|0'
p144
I1662
sS'../prefilter_allEM_chef9/kmeans_500_1/all_models.499/205.rmf3|0'
p145
I1580
sS'../prefilter_allEM_chef9/kmeans_500_1/all_models.499/243.rmf3|0'
p146
I1617
sS'../prefilter_allEM_chef9/kmeans_500_1/all_models.499/139.rmf3|0'
p147
I1518
sS'../prefilter_allEM_chef9/kmeans_500_1/all_models.499/143.rmf3|0'
p148
I1522
sS'../prefilter_allEM_chef9/kmeans_500_1/all_models.499/45.rmf3|0'
p149
I1428
sS'../prefilter_allEM_chef9/kmeans_500_1/all_models.499/369.rmf3|0'
p150
I1736
sS'../prefilter_allEM_chef9/kmeans_500_1/all_models.499/428.rmf3|0'
p151
I1790
sS'../prefilter_allEM_chef9/kmeans_500_1/all_models.499/206.rmf3|0'
p152
I1581
sS'../prefilter_allEM_chef9/kmeans_500_1/all_models.499/168.rmf3|0'
p153
I1547
sS'../prefilter_allEM_chef9/kmeans_500_1/all_models.499/499.rmf3|0'
p154
I1851
sS'../prefilter_allEM_chef9/kmeans_500_1/all_models.499/234.rmf3|0'
p155
I1608
sS'../prefilter_allEM_chef9/kmeans_500_1/all_models.499/214.rmf3|0'
p156
I1588
sS'../prefilter_allEM_chef9/kmeans_500_1/all_models.499/170.rmf3|0'
p157
I1549
sS'../prefilter_allEM_chef9/kmeans_500_1/all_models.499/488.rmf3|0'
p158
I1843
sS'../prefilter_allEM_chef9/kmeans_500_1/all_models.499/407.rmf3|0'
p159
I1771
sS'../prefilter_allEM_chef9/kmeans_500_1/all_models.499/2.rmf3|0'
p160
I1391
sS'../prefilter_allEM_chef9/kmeans_500_1/all_models.499/166.rmf3|0'
p161
I1545
sS'../prefilter_allEM_chef9/kmeans_500_1/all_models.499/267.rmf3|0'
p162
I1641
sS'../prefilter_allEM_chef9/kmeans_500_1/all_models.499/245.rmf3|0'
p163
I1619
sS'../prefilter_allEM_chef9/kmeans_500_1/all_models.499/348.rmf3|0'
p164
I1718
sS'../prefilter_allEM_chef9/kmeans_500_1/all_models.499/373.rmf3|0'
p165
I1739
sS'../prefilter_allEM_chef9/kmeans_500_1/all_models.499/44.rmf3|0'
p166
I1427
sS'../prefilter_allEM_chef9/kmeans_500_1/all_models.499/483.rmf3|0'
p167
I1839
sS'../prefilter_allEM_chef9/kmeans_500_1/all_models.499/28.rmf3|0'
p168
I1415
sS'../prefilter_allEM_chef9/kmeans_500_1/all_models.499/114.rmf3|0'
p169
I1496
sS'../prefilter_allEM_chef9/kmeans_500_1/all_models.499/165.rmf3|0'
p170
I1544
sS'../prefilter_allEM_chef9/kmeans_500_1/all_models.499/350.rmf3|0'
p171
I1720
sS'../prefilter_allEM_chef9/kmeans_500_1/all_models.499/60.rmf3|0'
p172
I1443
sS'../prefilter_allEM_chef9/kmeans_500_1/all_models.499/284.rmf3|0'
p173
I1658
sS'../prefilter_allEM_chef9/kmeans_500_1/all_models.499/24.rmf3|0'
p174
I1411
sS'../prefilter_allEM_chef9/kmeans_500_1/all_models.499/136.rmf3|0'
p175
I1515
sS'../prefilter_allEM_chef9/kmeans_500_1/all_models.499/145.rmf3|0'
p176
I1524
sS'../prefilter_allEM_chef9/kmeans_500_1/all_models.499/313.rmf3|0'
p177
I1686
sS'../prefilter_allEM_chef9/kmeans_500_1/all_models.499/423.rmf3|0'
p178
I1786
sS'../prefilter_allEM_chef9/kmeans_500_1/all_models.499/64.rmf3|0'
p179
I1447
sS'../prefilter_allEM_chef9/kmeans_500_1/all_models.499/280.rmf3|0'
p180
I1654
sS'../prefilter_allEM_chef9/kmeans_500_1/all_models.499/349.rmf3|0'
p181
I1719
sS'../prefilter_allEM_chef9/kmeans_500_1/all_models.499/69.rmf3|0'
p182
I1452
sS'../prefilter_allEM_chef9/kmeans_500_1/all_models.499/388.rmf3|0'
p183
I1753
sS'../prefilter_allEM_chef9/kmeans_500_1/all_models.499/88.rmf3|0'
p184
I1470
sS'../prefilter_allEM_chef9/kmeans_500_1/all_models.499/261.rmf3|0'
p185
I1635
sS'../prefilter_allEM_chef9/kmeans_500_1/all_models.499/472.rmf3|0'
p186
I1828
sS'../prefilter_allEM_chef9/kmeans_500_1/all_models.499/27.rmf3|0'
p187
I1414
sS'../prefilter_allEM_chef9/kmeans_500_1/all_models.499/310.rmf3|0'
p188
I1683
sS'../prefilter_allEM_chef9/kmeans_500_1/all_models.499/85.rmf3|0'
p189
I1468
sS'../prefilter_allEM_chef9/kmeans_500_1/all_models.499/144.rmf3|0'
p190
I1523
sS'../prefilter_allEM_chef9/kmeans_500_1/all_models.499/321.rmf3|0'
p191
I1693
sS'../prefilter_allEM_chef9/kmeans_500_1/all_models.499/307.rmf3|0'
p192
I1680
sS'../prefilter_allEM_chef9/kmeans_500_1/all_models.499/106.rmf3|0'
p193
I1488
sS'../prefilter_allEM_chef9/kmeans_500_1/all_models.499/496.rmf3|0'
p194
I1849
sS'../prefilter_allEM_chef9/kmeans_500_1/all_models.499/442.rmf3|0'
p195
I1803
sS'../prefilter_allEM_chef9/kmeans_500_1/all_models.499/50.rmf3|0'
p196
I1433
sS'../prefilter_allEM_chef9/kmeans_500_1/all_models.499/296.rmf3|0'
p197
I1670
sS'../prefilter_allEM_chef9/kmeans_500_1/all_models.499/72.rmf3|0'
p198
I1455
sS'../prefilter_allEM_chef9/kmeans_500_1/all_models.499/444.rmf3|0'
p199
I1805
sS'../prefilter_allEM_chef9/kmeans_500_1/all_models.499/467.rmf3|0'
p200
I1825
sS'../prefilter_allEM_chef9/kmeans_500_1/all_models.499/112.rmf3|0'
p201
I1494
sS'../prefilter_allEM_chef9/kmeans_500_1/all_models.499/68.rmf3|0'
p202
I1451
sS'../prefilter_allEM_chef9/kmeans_500_1/all_models.499/351.rmf3|0'
p203
I1721
sS'../prefilter_allEM_chef9/kmeans_500_1/all_models.499/364.rmf3|0'
p204
I1732
sS'../prefilter_allEM_chef9/kmeans_500_1/all_models.499/66.rmf3|0'
p205
I1449
sS'../prefilter_allEM_chef9/kmeans_500_1/all_models.499/282.rmf3|0'
p206
I1656
sS'../prefilter_allEM_chef9/kmeans_500_1/all_models.499/429.rmf3|0'
p207
I1791
sS'../prefilter_allEM_chef9/kmeans_500_1/all_models.499/417.rmf3|0'
p208
I1780
sS'../prefilter_allEM_chef9/kmeans_500_1/all_models.499/203.rmf3|0'
p209
I1578
sS'../prefilter_allEM_chef9/kmeans_500_1/all_models.499/212.rmf3|0'
p210
I1587
sS'../prefilter_allEM_chef9/kmeans_500_1/all_models.499/124.rmf3|0'
p211
I1503
sS'../prefilter_allEM_chef9/kmeans_500_1/all_models.499/162.rmf3|0'
p212
I1541
sS'../prefilter_allEM_chef9/kmeans_500_1/all_models.499/111.rmf3|0'
p213
I1493
sS'../prefilter_allEM_chef9/kmeans_500_1/all_models.499/290.rmf3|0'
p214
I1664
sS'../prefilter_allEM_chef9/kmeans_500_1/all_models.499/74.rmf3|0'
p215
I1457
sS'../prefilter_allEM_chef9/kmeans_500_1/all_models.499/439.rmf3|0'
p216
I1800
sS'../prefilter_allEM_chef9/kmeans_500_1/all_models.499/78.rmf3|0'
p217
I1461
sS'../prefilter_allEM_chef9/kmeans_500_1/all_models.499/400.rmf3|0'
p218
I1764
sS'../prefilter_allEM_chef9/kmeans_500_1/all_models.499/239.rmf3|0'
p219
I1613
sS'../prefilter_allEM_chef9/kmeans_500_1/all_models.499/127.rmf3|0'
p220
I1506
sS'../prefilter_allEM_chef9/kmeans_500_1/all_models.499/147.rmf3|0'
p221
I1526
sS'../prefilter_allEM_chef9/kmeans_500_1/all_models.499/451.rmf3|0'
p222
I1811
sS'../prefilter_allEM_chef9/kmeans_500_1/all_models.499/42.rmf3|0'
p223
I1425
sS'../prefilter_allEM_chef9/kmeans_500_1/all_models.499/223.rmf3|0'
p224
I1597
sS'../prefilter_allEM_chef9/kmeans_500_1/all_models.499/306.rmf3|0'
p225
I1679
sS'../prefilter_allEM_chef9/kmeans_500_1/all_models.499/153.rmf3|0'
p226
I1532
sS'../prefilter_allEM_chef9/kmeans_500_1/all_models.499/235.rmf3|0'
p227
I1609
sS'../prefilter_allEM_chef9/kmeans_500_1/all_models.499/343.rmf3|0'
p228
I1714
sS'../prefilter_allEM_chef9/kmeans_500_1/all_models.499/309.rmf3|0'
p229
I1682
sS'../prefilter_allEM_chef9/kmeans_500_1/all_models.499/493.rmf3|0'
p230
I1846
sS'../prefilter_allEM_chef9/kmeans_500_1/all_models.499/220.rmf3|0'
p231
I1594
sS'../prefilter_allEM_chef9/kmeans_500_1/all_models.499/186.rmf3|0'
p232
I1562
sS'../prefilter_allEM_chef9/kmeans_500_1/all_models.499/268.rmf3|0'
p233
I1642
sS'../prefilter_allEM_chef9/kmeans_500_1/all_models.499/164.rmf3|0'
p234
I1543
sS'../prefilter_allEM_chef9/kmeans_500_1/all_models.499/252.rmf3|0'
p235
I1626
sS'../prefilter_allEM_chef9/kmeans_500_1/all_models.499/7.rmf3|0'
p236
I1396
sS'../prefilter_allEM_chef9/kmeans_500_1/all_models.499/81.rmf3|0'
p237
I1464
sS'../prefilter_allEM_chef9/kmeans_500_1/all_models.499/237.rmf3|0'
p238
I1611
sS'../prefilter_allEM_chef9/kmeans_500_1/all_models.499/337.rmf3|0'
p239
I1708
sS'../prefilter_allEM_chef9/kmeans_500_1/all_models.499/419.rmf3|0'
p240
I1782
sS'../prefilter_allEM_chef9/kmeans_500_1/all_models.499/149.rmf3|0'
p241
I1528
sS'../prefilter_allEM_chef9/kmeans_500_1/all_models.499/482.rmf3|0'
p242
I1838
sS'../prefilter_allEM_chef9/kmeans_500_1/all_models.499/185.rmf3|0'
p243
I1561
sS'../prefilter_allEM_chef9/kmeans_500_1/all_models.499/469.rmf3|0'
p244
I1826
sS'../prefilter_allEM_chef9/kmeans_500_1/all_models.499/302.rmf3|0'
p245
I1676
sS'../prefilter_allEM_chef9/kmeans_500_1/all_models.499/15.rmf3|0'
p246
I1402
sS'../prefilter_allEM_chef9/kmeans_500_1/all_models.499/425.rmf3|0'
p247
I1787
sS'../prefilter_allEM_chef9/kmeans_500_1/all_models.499/188.rmf3|0'
p248
I1564
sS'../prefilter_allEM_chef9/kmeans_500_1/all_models.499/4.rmf3|0'
p249
I1393
sS'../prefilter_allEM_chef9/kmeans_500_1/all_models.499/300.rmf3|0'
p250
I1674
sS'../prefilter_allEM_chef9/kmeans_500_1/all_models.499/21.rmf3|0'
p251
I1408
sS'../prefilter_allEM_chef9/kmeans_500_1/all_models.499/271.rmf3|0'
p252
I1645
sS'../prefilter_allEM_chef9/kmeans_500_1/all_models.499/289.rmf3|0'
p253
I1663
sS'../prefilter_allEM_chef9/kmeans_500_1/all_models.499/20.rmf3|0'
p254
I1407
sS'../prefilter_allEM_chef9/kmeans_500_1/all_models.499/397.rmf3|0'
p255
I1761
sS'../prefilter_allEM_chef9/kmeans_500_1/all_models.499/132.rmf3|0'
p256
I1511
sS'../prefilter_allEM_chef9/kmeans_500_1/all_models.499/196.rmf3|0'
p257
I1572
sS'../prefilter_allEM_chef9/kmeans_500_1/all_models.499/329.rmf3|0'
p258
I1700
sS'../prefilter_allEM_chef9/kmeans_500_1/all_models.499/16.rmf3|0'
p259
I1403
sS'../prefilter_allEM_chef9/kmeans_500_1/all_models.499/404.rmf3|0'
p260
I1768
sS'../prefilter_allEM_chef9/kmeans_500_1/all_models.499/96.rmf3|0'
p261
I1478
sS'../prefilter_allEM_chef9/kmeans_500_1/all_models.499/376.rmf3|0'
p262
I1742
sS'../prefilter_allEM_chef9/kmeans_500_1/all_models.499/19.rmf3|0'
p263
I1406
sS'../prefilter_allEM_chef9/kmeans_500_1/all_models.499/409.rmf3|0'
p264
I1773
sS'../prefilter_allEM_chef9/kmeans_500_1/all_models.499/498.rmf3|0'
p265
I1850
sS'../prefilter_allEM_chef9/kmeans_500_1/all_models.499/47.rmf3|0'
p266
I1430
sS'../prefilter_allEM_chef9/kmeans_500_1/all_models.499/204.rmf3|0'
p267
I1579
sS'../prefilter_allEM_chef9/kmeans_500_1/all_models.499/456.rmf3|0'
p268
I1816
sS'../prefilter_allEM_chef9/kmeans_500_1/all_models.499/107.rmf3|0'
p269
I1489
sS'../prefilter_allEM_chef9/kmeans_500_1/all_models.499/244.rmf3|0'
p270
I1618
sS'../prefilter_allEM_chef9/kmeans_500_1/all_models.499/458.rmf3|0'
p271
I1818
sS'../prefilter_allEM_chef9/kmeans_500_1/all_models.499/238.rmf3|0'
p272
I1612
sS'../prefilter_allEM_chef9/kmeans_500_1/all_models.499/13.rmf3|0'
p273
I1400
sS'../prefilter_allEM_chef9/kmeans_500_1/all_models.499/37.rmf3|0'
p274
I1421
sS'../prefilter_allEM_chef9/kmeans_500_1/all_models.499/201.rmf3|0'
p275
I1576
sS'../prefilter_allEM_chef9/kmeans_500_1/all_models.499/339.rmf3|0'
p276
I1710
sS'../prefilter_allEM_chef9/kmeans_500_1/all_models.499/361.rmf3|0'
p277
I1730
sS'../prefilter_allEM_chef9/kmeans_500_1/all_models.499/283.rmf3|0'
p278
I1657
sS'../prefilter_allEM_chef9/kmeans_500_1/all_models.499/67.rmf3|0'
p279
I1450
sS'../prefilter_allEM_chef9/kmeans_500_1/all_models.499/358.rmf3|0'
p280
I1727
sS'../prefilter_allEM_chef9/kmeans_500_1/all_models.499/58.rmf3|0'
p281
I1441
sS'../prefilter_allEM_chef9/kmeans_500_1/all_models.499/437.rmf3|0'
p282
I1798
sS'../prefilter_allEM_chef9/kmeans_500_1/all_models.499/97.rmf3|0'
p283
I1479
sS'../prefilter_allEM_chef9/kmeans_500_1/all_models.499/134.rmf3|0'
p284
I1513
sS'../prefilter_allEM_chef9/kmeans_500_1/all_models.499/46.rmf3|0'
p285
I1429
sS'../prefilter_allEM_chef9/kmeans_500_1/all_models.499/17.rmf3|0'
p286
I1404
sS'../prefilter_allEM_chef9/kmeans_500_1/all_models.499/405.rmf3|0'
p287
I1769
sS'../prefilter_allEM_chef9/kmeans_500_1/all_models.499/181.rmf3|0'
p288
I1558
sS'../prefilter_allEM_chef9/kmeans_500_1/all_models.499/263.rmf3|0'
p289
I1637
sS'../prefilter_allEM_chef9/kmeans_500_1/all_models.499/438.rmf3|0'
p290
I1799
sS'../prefilter_allEM_chef9/kmeans_500_1/all_models.499/200.rmf3|0'
p291
I1575
sS'../prefilter_allEM_chef9/kmeans_500_1/all_models.499/48.rmf3|0'
p292
I1431
sS'../prefilter_allEM_chef9/kmeans_500_1/all_models.499/86.rmf3|0'
p293
I1469
sS'../prefilter_allEM_chef9/kmeans_500_1/all_models.499/225.rmf3|0'
p294
I1599
sS'../prefilter_allEM_chef9/kmeans_500_1/all_models.499/415.rmf3|0'
p295
I1778
sS'../prefilter_allEM_chef9/kmeans_500_1/all_models.499/331.rmf3|0'
p296
I1702
sS'../prefilter_allEM_chef9/kmeans_500_1/all_models.499/398.rmf3|0'
p297
I1762
sS'../prefilter_allEM_chef9/kmeans_500_1/all_models.499/142.rmf3|0'
p298
I1521
sS'../prefilter_allEM_chef9/kmeans_500_1/all_models.499/137.rmf3|0'
p299
I1516
sS'../prefilter_allEM_chef9/kmeans_500_1/all_models.499/479.rmf3|0'
p300
I1835
sS'../prefilter_allEM_chef9/kmeans_500_1/all_models.499/52.rmf3|0'
p301
I1435
sS'../prefilter_allEM_chef9/kmeans_500_1/all_models.499/487.rmf3|0'
p302
I1842
sS'../prefilter_allEM_chef9/kmeans_500_1/all_models.499/179.rmf3|0'
p303
I1556
sS'../prefilter_allEM_chef9/kmeans_500_1/all_models.499/141.rmf3|0'
p304
I1520
sS'../prefilter_allEM_chef9/kmeans_500_1/all_models.499/156.rmf3|0'
p305
I1535
sS'../prefilter_allEM_chef9/kmeans_500_1/all_models.499/258.rmf3|0'
p306
I1632
sS'../prefilter_allEM_chef9/kmeans_500_1/all_models.499/426.rmf3|0'
p307
I1788
sS'../prefilter_allEM_chef9/kmeans_500_1/all_models.499/326.rmf3|0'
p308
I1697
sS'../prefilter_allEM_chef9/kmeans_500_1/all_models.499/360.rmf3|0'
p309
I1729
sS'../prefilter_allEM_chef9/kmeans_500_1/all_models.499/102.rmf3|0'
p310
I1484
sS'../prefilter_allEM_chef9/kmeans_500_1/all_models.499/174.rmf3|0'
p311
I1552
sS'../prefilter_allEM_chef9/kmeans_500_1/all_models.499/298.rmf3|0'
p312
I1672
sS'../prefilter_allEM_chef9/kmeans_500_1/all_models.499/253.rmf3|0'
p313
I1627
sS'../prefilter_allEM_chef9/kmeans_500_1/all_models.499/167.rmf3|0'
p314
I1546
sS'../prefilter_allEM_chef9/kmeans_500_1/all_models.499/217.rmf3|0'
p315
I1591
sS'../prefilter_allEM_chef9/kmeans_500_1/all_models.499/418.rmf3|0'
p316
I1781
sS'../prefilter_allEM_chef9/kmeans_500_1/all_models.499/180.rmf3|0'
p317
I1557
sS'../prefilter_allEM_chef9/kmeans_500_1/all_models.499/461.rmf3|0'
p318
I1820
sS'../prefilter_allEM_chef9/kmeans_500_1/all_models.499/371.rmf3|0'
p319
I1737
sS'../prefilter_allEM_chef9/kmeans_500_1/all_models.499/430.rmf3|0'
p320
I1792
sS'../prefilter_allEM_chef9/kmeans_500_1/all_models.499/53.rmf3|0'
p321
I1436
sS'../prefilter_allEM_chef9/kmeans_500_1/all_models.499/278.rmf3|0'
p322
I1652
sS'../prefilter_allEM_chef9/kmeans_500_1/all_models.499/3.rmf3|0'
p323
I1392
sS'../prefilter_allEM_chef9/kmeans_500_1/all_models.499/266.rmf3|0'
p324
I1640
sS'../prefilter_allEM_chef9/kmeans_500_1/all_models.499/251.rmf3|0'
p325
I1625
sS'../prefilter_allEM_chef9/kmeans_500_1/all_models.499/115.rmf3|0'
p326
I1497
sS'../prefilter_allEM_chef9/kmeans_500_1/all_models.499/311.rmf3|0'
p327
I1684
sS'../prefilter_allEM_chef9/kmeans_500_1/all_models.499/39.rmf3|0'
p328
I1422
sS'../prefilter_allEM_chef9/kmeans_500_1/all_models.499/481.rmf3|0'
p329
I1837
sS'../prefilter_allEM_chef9/kmeans_500_1/all_models.499/379.rmf3|0'
p330
I1745
sS'../prefilter_allEM_chef9/kmeans_500_1/all_models.499/30.rmf3|0'
p331
I1416
sS'../prefilter_allEM_chef9/kmeans_500_1/all_models.499/440.rmf3|0'
p332
I1801
sS'../prefilter_allEM_chef9/kmeans_500_1/all_models.499/412.rmf3|0'
p333
I1776
sS'../prefilter_allEM_chef9/kmeans_500_1/all_models.499/447.rmf3|0'
p334
I1808
sS'../prefilter_allEM_chef9/kmeans_500_1/all_models.499/51.rmf3|0'
p335
I1434
sS'../prefilter_allEM_chef9/kmeans_500_1/all_models.499/260.rmf3|0'
p336
I1634
sS'../prefilter_allEM_chef9/kmeans_500_1/all_models.499/73.rmf3|0'
p337
I1456
sS'../prefilter_allEM_chef9/kmeans_500_1/all_models.499/297.rmf3|0'
p338
I1671
sS'../prefilter_allEM_chef9/kmeans_500_1/all_models.499/195.rmf3|0'
p339
I1571
sS'../prefilter_allEM_chef9/kmeans_500_1/all_models.499/232.rmf3|0'
p340
I1606
sS'../prefilter_allEM_chef9/kmeans_500_1/all_models.499/340.rmf3|0'
p341
I1711
sS'../prefilter_allEM_chef9/kmeans_500_1/all_models.499/366.rmf3|0'
p342
I1734
sS'../prefilter_allEM_chef9/kmeans_500_1/all_models.499/378.rmf3|0'
p343
I1744
sS'../prefilter_allEM_chef9/kmeans_500_1/all_models.499/460.rmf3|0'
p344
I1819
sS'../prefilter_allEM_chef9/kmeans_500_1/all_models.499/387.rmf3|0'
p345
I1752
sS'../prefilter_allEM_chef9/kmeans_500_1/all_models.499/43.rmf3|0'
p346
I1426
sS'../prefilter_allEM_chef9/kmeans_500_1/all_models.499/84.rmf3|0'
p347
I1467
sS'../prefilter_allEM_chef9/kmeans_500_1/all_models.499/441.rmf3|0'
p348
I1802
sS'../prefilter_allEM_chef9/kmeans_500_1/all_models.499/158.rmf3|0'
p349
I1537
sS'../prefilter_allEM_chef9/kmeans_500_1/all_models.499/294.rmf3|0'
p350
I1668
sS'../prefilter_allEM_chef9/kmeans_500_1/all_models.499/70.rmf3|0'
p351
I1453
sS'../prefilter_allEM_chef9/kmeans_500_1/all_models.499/231.rmf3|0'
p352
I1605
sS'../prefilter_allEM_chef9/kmeans_500_1/all_models.499/138.rmf3|0'
p353
I1517
sS'../prefilter_allEM_chef9/kmeans_500_1/all_models.499/211.rmf3|0'
p354
I1586
sS'../prefilter_allEM_chef9/kmeans_500_1/all_models.499/265.rmf3|0'
p355
I1639
sS'../prefilter_allEM_chef9/kmeans_500_1/all_models.499/113.rmf3|0'
p356
I1495
sS'../prefilter_allEM_chef9/kmeans_500_1/all_models.499/495.rmf3|0'
p357
I1848
sS'../prefilter_allEM_chef9/kmeans_500_1/all_models.499/41.rmf3|0'
p358
I1424
sS'../prefilter_allEM_chef9/kmeans_500_1/all_models.499/126.rmf3|0'
p359
I1505
sS'../prefilter_allEM_chef9/kmeans_500_1/all_models.499/104.rmf3|0'
p360
I1486
sS'../prefilter_allEM_chef9/kmeans_500_1/all_models.499/222.rmf3|0'
p361
I1596
sS'../prefilter_allEM_chef9/kmeans_500_1/all_models.499/308.rmf3|0'
p362
I1681
sS'../prefilter_allEM_chef9/kmeans_500_1/all_models.499/287.rmf3|0'
p363
I1661
sS'../prefilter_allEM_chef9/kmeans_500_1/all_models.499/63.rmf3|0'
p364
I1446
sS'../prefilter_allEM_chef9/kmeans_500_1/all_models.499/410.rmf3|0'
p365
I1774
sS'../prefilter_allEM_chef9/kmeans_500_1/all_models.499/346.rmf3|0'
p366
I1716
sS'../prefilter_allEM_chef9/kmeans_500_1/all_models.499/301.rmf3|0'
p367
I1675
sS'../prefilter_allEM_chef9/kmeans_500_1/all_models.499/75.rmf3|0'
p368
I1458
sS'../prefilter_allEM_chef9/kmeans_500_1/all_models.499/291.rmf3|0'
p369
I1665
sS'../prefilter_allEM_chef9/kmeans_500_1/all_models.499/173.rmf3|0'
p370
I1551
sS'../prefilter_allEM_chef9/kmeans_500_1/all_models.499/210.rmf3|0'
p371
I1585
sS'../prefilter_allEM_chef9/kmeans_500_1/all_models.499/241.rmf3|0'
p372
I1615
sS'../prefilter_allEM_chef9/kmeans_500_1/all_models.499/227.rmf3|0'
p373
I1601
sS'../prefilter_allEM_chef9/kmeans_500_1/all_models.499/403.rmf3|0'
p374
I1767
sS'../prefilter_allEM_chef9/kmeans_500_1/all_models.499/169.rmf3|0'
p375
I1548
sS'../prefilter_allEM_chef9/kmeans_500_1/all_models.499/49.rmf3|0'
p376
I1432
sS'../prefilter_allEM_chef9/kmeans_500_1/all_models.499/393.rmf3|0'
p377
I1757
sS'../prefilter_allEM_chef9/kmeans_500_1/all_models.499/71.rmf3|0'
p378
I1454
sS'../prefilter_allEM_chef9/kmeans_500_1/all_models.499/295.rmf3|0'
p379
I1669
sS'../prefilter_allEM_chef9/kmeans_500_1/all_models.499/434.rmf3|0'
p380
I1795
sS'../prefilter_allEM_chef9/kmeans_500_1/all_models.499/226.rmf3|0'
p381
I1600
sS'../prefilter_allEM_chef9/kmeans_500_1/all_models.499/492.rmf3|0'
p382
I1845
sS'../prefilter_allEM_chef9/kmeans_500_1/all_models.499/473.rmf3|0'
p383
I1829
sS'../prefilter_allEM_chef9/kmeans_500_1/all_models.499/317.rmf3|0'
p384
I1690
sS'../prefilter_allEM_chef9/kmeans_500_1/all_models.499/436.rmf3|0'
p385
I1797
sS'../prefilter_allEM_chef9/kmeans_500_1/all_models.499/236.rmf3|0'
p386
I1610
sS'../prefilter_allEM_chef9/kmeans_500_1/all_models.499/5.rmf3|0'
p387
I1394
sS'../prefilter_allEM_chef9/kmeans_500_1/all_models.499/240.rmf3|0'
p388
I1614
sS'../prefilter_allEM_chef9/kmeans_500_1/all_models.499/453.rmf3|0'
p389
I1813
sS'../prefilter_allEM_chef9/kmeans_500_1/all_models.499/395.rmf3|0'
p390
I1759
sS'../prefilter_allEM_chef9/kmeans_500_1/all_models.499/281.rmf3|0'
p391
I1655
sS'../prefilter_allEM_chef9/kmeans_500_1/all_models.499/65.rmf3|0'
p392
I1448
sS'../prefilter_allEM_chef9/kmeans_500_1/all_models.499/22.rmf3|0'
p393
I1409
sS'../prefilter_allEM_chef9/kmeans_500_1/all_models.499/399.rmf3|0'
p394
I1763
sS'../prefilter_allEM_chef9/kmeans_500_1/all_models.499/275.rmf3|0'
p395
I1649
sS'../prefilter_allEM_chef9/kmeans_500_1/all_models.499/25.rmf3|0'
p396
I1412
sS'../prefilter_allEM_chef9/kmeans_500_1/all_models.499/193.rmf3|0'
p397
I1569
sS'../prefilter_allEM_chef9/kmeans_500_1/all_models.499/94.rmf3|0'
p398
I1476
sS'../prefilter_allEM_chef9/kmeans_500_1/all_models.499/55.rmf3|0'
p399
I1438
sS'../prefilter_allEM_chef9/kmeans_500_1/all_models.499/338.rmf3|0'
p400
I1709
sS'../prefilter_allEM_chef9/kmeans_500_1/all_models.499/272.rmf3|0'
p401
I1646
sS'../prefilter_allEM_chef9/kmeans_500_1/all_models.499/119.rmf3|0'
p402
I1499
sS'../prefilter_allEM_chef9/kmeans_500_1/all_models.499/218.rmf3|0'
p403
I1592
sS'../prefilter_allEM_chef9/kmeans_500_1/all_models.499/381.rmf3|0'
p404
I1747
sS'../prefilter_allEM_chef9/kmeans_500_1/all_models.499/128.rmf3|0'
p405
I1507
sS'../prefilter_allEM_chef9/kmeans_500_1/all_models.499/77.rmf3|0'
p406
I1460
sS'../prefilter_allEM_chef9/kmeans_500_1/all_models.499/293.rmf3|0'
p407
I1667
sS'../prefilter_allEM_chef9/kmeans_500_1/all_models.499/207.rmf3|0'
p408
I1582
sS'../prefilter_allEM_chef9/kmeans_500_1/all_models.499/279.rmf3|0'
p409
I1653
sS'../prefilter_allEM_chef9/kmeans_500_1/all_models.499/26.rmf3|0'
p410
I1413
sS'../prefilter_allEM_chef9/kmeans_500_1/all_models.499/189.rmf3|0'
p411
I1565
sS'../prefilter_allEM_chef9/kmeans_500_1/all_models.499/229.rmf3|0'
p412
I1603
sS'../prefilter_allEM_chef9/kmeans_500_1/all_models.499/334.rmf3|0'
p413
I1705
sS'../prefilter_allEM_chef9/kmeans_500_1/all_models.499/228.rmf3|0'
p414
I1602
sS'../prefilter_allEM_chef9/kmeans_500_1/all_models.499/23.rmf3|0'
p415
I1410
sS'../prefilter_allEM_chef9/kmeans_500_1/all_models.499/433.rmf3|0'
p416
I1794
sS'../prefilter_allEM_chef9/kmeans_500_1/all_models.499/230.rmf3|0'
p417
I1604
sS'../prefilter_allEM_chef9/kmeans_500_1/all_models.499/490.rmf3|0'
p418
I1844
sS'../prefilter_allEM_chef9/kmeans_500_1/all_models.499/120.rmf3|0'
p419
I1500
sS'../prefilter_allEM_chef9/kmeans_500_1/all_models.499/328.rmf3|0'
p420
I1699
sS'../prefilter_allEM_chef9/kmeans_500_1/all_models.499/372.rmf3|0'
p421
I1738
sS'../prefilter_allEM_chef9/kmeans_500_1/all_models.499/133.rmf3|0'
p422
I1512
sS'../prefilter_allEM_chef9/kmeans_500_1/all_models.499/455.rmf3|0'
p423
I1815
sS'../prefilter_allEM_chef9/kmeans_500_1/all_models.499/246.rmf3|0'
p424
I1620
sS'../prefilter_allEM_chef9/kmeans_500_1/all_models.499/319.rmf3|0'
p425
I1692
sS'../prefilter_allEM_chef9/kmeans_500_1/all_models.499/477.rmf3|0'
p426
I1833
sS'../prefilter_allEM_chef9/kmeans_500_1/all_models.499/259.rmf3|0'
p427
I1633
sS'../prefilter_allEM_chef9/kmeans_500_1/all_models.499/474.rmf3|0'
p428
I1830
sS'../prefilter_allEM_chef9/kmeans_500_1/all_models.499/92.rmf3|0'
p429
I1474
sS'../prefilter_allEM_chef9/kmeans_500_1/all_models.499/59.rmf3|0'
p430
I1442
sS'../prefilter_allEM_chef9/kmeans_500_1/all_models.499/254.rmf3|0'
p431
I1628
sS'../prefilter_allEM_chef9/kmeans_500_1/all_models.499/103.rmf3|0'
p432
I1485
sS'../prefilter_allEM_chef9/kmeans_500_1/all_models.499/151.rmf3|0'
p433
I1530
sS'../prefilter_allEM_chef9/kmeans_500_1/all_models.499/402.rmf3|0'
p434
I1766
sS'../prefilter_allEM_chef9/kmeans_500_1/all_models.499/117.rmf3|0'
p435
I1498
sS'../prefilter_allEM_chef9/kmeans_500_1/all_models.499/190.rmf3|0'
p436
I1566
sS'../prefilter_allEM_chef9/kmeans_500_1/all_models.499/257.rmf3|0'
p437
I1631
sS'../prefilter_allEM_chef9/kmeans_500_1/all_models.499/476.rmf3|0'
p438
I1832
sS'../prefilter_allEM_chef9/kmeans_500_1/all_models.499/478.rmf3|0'
p439
I1834
sS'../prefilter_allEM_chef9/kmeans_500_1/all_models.499/152.rmf3|0'
p440
I1531
sS'../prefilter_allEM_chef9/kmeans_500_1/all_models.499/416.rmf3|0'
p441
I1779
sS'../prefilter_allEM_chef9/kmeans_500_1/all_models.499/208.rmf3|0'
p442
I1583
sS'../prefilter_allEM_chef9/kmeans_500_1/all_models.499/160.rmf3|0'
p443
I1539
sS'../prefilter_allEM_chef9/kmeans_500_1/all_models.499/332.rmf3|0'
p444
I1703
sS'../prefilter_allEM_chef9/kmeans_500_1/all_models.499/135.rmf3|0'
p445
I1514
sS'../prefilter_allEM_chef9/kmeans_500_1/all_models.499/413.rmf3|0'
p446
I1777
sS'../prefilter_allEM_chef9/kmeans_500_1/all_models.499/140.rmf3|0'
p447
I1519
sS'../prefilter_allEM_chef9/kmeans_500_1/all_models.499/35.rmf3|0'
p448
I1419
sS'../prefilter_allEM_chef9/kmeans_500_1/all_models.499/384.rmf3|0'
p449
I1750
sS'../prefilter_allEM_chef9/kmeans_500_1/all_models.499/327.rmf3|0'
p450
I1698
sS'../prefilter_allEM_chef9/kmeans_500_1/all_models.499/421.rmf3|0'
p451
I1784
sS'../prefilter_allEM_chef9/kmeans_500_1/all_models.499/443.rmf3|0'
p452
I1804
sS'../prefilter_allEM_chef9/kmeans_500_1/all_models.499/62.rmf3|0'
p453
I1445
sS'../prefilter_allEM_chef9/kmeans_500_1/all_models.499/286.rmf3|0'
p454
I1660
sS'../prefilter_allEM_chef9/kmeans_500_1/all_models.499/367.rmf3|0'
p455
I1735
sS'../prefilter_allEM_chef9/kmeans_500_1/all_models.499/178.rmf3|0'
p456
I1555
sS'../prefilter_allEM_chef9/kmeans_500_1/all_models.499/274.rmf3|0'
p457
I1648
sS'../prefilter_allEM_chef9/kmeans_500_1/all_models.499/333.rmf3|0'
p458
I1704
sS'../prefilter_allEM_chef9/kmeans_500_1/all_models.499/435.rmf3|0'
p459
I1796
sS'../prefilter_allEM_chef9/kmeans_500_1/all_models.499/322.rmf3|0'
p460
I1694
sS'../prefilter_allEM_chef9/kmeans_500_1/all_models.499/40.rmf3|0'
p461
I1423
sS'../prefilter_allEM_chef9/kmeans_500_1/all_models.499/448.rmf3|0'
p462
I1809
sS'../prefilter_allEM_chef9/kmeans_500_1/all_models.499/187.rmf3|0'
p463
I1563
sS'../prefilter_allEM_chef9/kmeans_500_1/all_models.499/262.rmf3|0'
p464
I1636
sS'../prefilter_allEM_chef9/kmeans_500_1/all_models.499/299.rmf3|0'
p465
I1673
sS'../prefilter_allEM_chef9/kmeans_500_1/all_models.499/10.rmf3|0'
p466
I1397
sS'../prefilter_allEM_chef9/kmeans_500_1/all_models.499/91.rmf3|0'
p467
I1473
sS'../prefilter_allEM_chef9/kmeans_500_1/all_models.499/385.rmf3|0'
p468
I1751
sa.